target datalayout = "e-m:e-p270:32:32-p271:32:32-p272:64:64-i64:64-i128:128-f80:128-n8:16:32:64-S128"
target triple = "x86_64-pc-linux-gnu"

@.str = private unnamed_addr constant [9 x i8] c"identity\00", align 1
@.str.1 = private unnamed_addr constant [8 x i8] c"deflate\00", align 1
@.str.2 = private unnamed_addr constant [5 x i8] c"gzip\00", align 1

; Function Attrs: mustprogress nounwind uwtable
define noundef ptr @_ZN9grpc_core28CompressionAlgorithmAsStringE26grpc_compression_algorithm(i32 noundef %0) #4 {
  %2 = alloca ptr, align 8
  %3 = alloca i32, align 4
  store i32 %0, ptr %3, align 4, !tbaa !3
  %4 = load i32, ptr %3, align 4, !tbaa !3
  switch i32 %4, label %9 [
    i32 0, label %5
    i32 1, label %6
    i32 2, label %7
    i32 3, label %8
  ]

5:                                                ; preds = %1
  store ptr @.str, ptr %2, align 8
  br label %10

6:                                                ; preds = %1
  store ptr @.str.1, ptr %2, align 8
  br label %10

7:                                                ; preds = %1
  store ptr @.str.2, ptr %2, align 8
  br label %10

8:                                                ; preds = %1
  br label %9

9:                                                ; preds = %1, %8
  store ptr null, ptr %2, align 8
  br label %10

10:                                               ; preds = %9, %7, %6, %5
  %11 = load ptr, ptr %2, align 8
  ret ptr %11
}